; Function Attrs: inlinehint mustprogress nounwind optsize uwtable
define internal void @"_ZZL32nanobind_init_test_intrusive_extRN8nanobind7module_EEN3$_58__invokeEP7_object"(ptr noundef captures(none) %0) #8 align 2 personality ptr @__gxx_personality_v0 {
  %2 = invoke i32 @PyGILState_Ensure() #16
          to label %_ZN8nanobind18gil_scoped_acquireC2Ev.exit.i unwind label %3

3:                                                ; preds = %1
  %4 = landingpad { ptr, i32 }
          catch ptr null
  %5 = extractvalue { ptr, i32 } %4, 0
  tail call void @__clang_call_terminate(ptr %5) #19
  unreachable

_ZN8nanobind18gil_scoped_acquireC2Ev.exit.i:      ; preds = %1
  %6 = load i64, ptr %0, align 8, !tbaa !47
  %7 = add nsw i64 %6, 1
  store i64 %7, ptr %0, align 8, !tbaa !47
  invoke void @PyGILState_Release(i32 noundef %2) #16
          to label %"_ZZL32nanobind_init_test_intrusive_extRN8nanobind7module_EENK3$_5clEP7_object.exit" unwind label %8

8:                                                ; preds = %_ZN8nanobind18gil_scoped_acquireC2Ev.exit.i
  %9 = landingpad { ptr, i32 }
          catch ptr null
  %10 = extractvalue { ptr, i32 } %9, 0
  tail call void @__clang_call_terminate(ptr %10) #19
  unreachable

"_ZZL32nanobind_init_test_intrusive_extRN8nanobind7module_EENK3$_5clEP7_object.exit": ; preds = %_ZN8nanobind18gil_scoped_acquireC2Ev.exit.i
  ret void
}